target datalayout = "e-m:e-p270:32:32-p271:32:32-p272:64:64-i64:64-i128:128-f80:128-n8:16:32:64-S128"
target triple = "x86_64-pc-linux-gnu"

%"class.llvm::ExecutionDomainFix" = type { %"class.llvm::MachineFunctionPass", %"class.llvm::SpecificBumpPtrAllocator", %"class.llvm::SmallVector.6", ptr, ptr, ptr, ptr, %"class.std::vector", i32, %"class.std::vector.11", %"class.llvm::SmallVector.16", ptr }
%"class.llvm::MachineFunctionPass" = type { %"class.llvm::FunctionPass.base", %"class.llvm::MachineFunctionProperties", %"class.llvm::MachineFunctionProperties", %"class.llvm::MachineFunctionProperties" }
%"class.llvm::FunctionPass.base" = type { %"class.llvm::Pass.base" }
%"class.llvm::Pass.base" = type <{ ptr, ptr, ptr, i32 }>
%"class.llvm::MachineFunctionProperties" = type { %"class.std::bitset" }
%"class.std::bitset" = type { %"struct.std::_Base_bitset" }
%"struct.std::_Base_bitset" = type { i64 }
%"class.llvm::SpecificBumpPtrAllocator" = type { %"class.llvm::BumpPtrAllocatorImpl" }
%"class.llvm::BumpPtrAllocatorImpl" = type { ptr, ptr, %"class.llvm::SmallVector", %"class.llvm::SmallVector.1", i64, i64 }
%"class.llvm::SmallVector" = type { %"class.llvm::SmallVectorImpl", %"struct.llvm::SmallVectorStorage" }
%"class.llvm::SmallVectorImpl" = type { %"class.llvm::SmallVectorTemplateBase" }
%"class.llvm::SmallVectorTemplateBase" = type { %"class.llvm::SmallVectorTemplateCommon" }
%"class.llvm::SmallVectorTemplateCommon" = type { %"class.llvm::SmallVectorBase" }
%"class.llvm::SmallVectorBase" = type { ptr, i32, i32 }
%"struct.llvm::SmallVectorStorage" = type { [32 x i8] }
%"class.llvm::SmallVector.1" = type { %"class.llvm::SmallVectorImpl.2" }
%"class.llvm::SmallVectorImpl.2" = type { %"class.llvm::SmallVectorTemplateBase.3" }
%"class.llvm::SmallVectorTemplateBase.3" = type { %"class.llvm::SmallVectorTemplateCommon.4" }
%"class.llvm::SmallVectorTemplateCommon.4" = type { %"class.llvm::SmallVectorBase" }
%"class.llvm::SmallVector.6" = type { %"class.llvm::SmallVectorImpl.7", %"struct.llvm::SmallVectorStorage.10" }
%"class.llvm::SmallVectorImpl.7" = type { %"class.llvm::SmallVectorTemplateBase.8" }
%"class.llvm::SmallVectorTemplateBase.8" = type { %"class.llvm::SmallVectorTemplateCommon.9" }
%"class.llvm::SmallVectorTemplateCommon.9" = type { %"class.llvm::SmallVectorBase" }
%"struct.llvm::SmallVectorStorage.10" = type { [128 x i8] }
%"class.std::vector" = type { %"struct.std::_Vector_base" }
%"struct.std::_Vector_base" = type { %"struct.std::_Vector_base<llvm::SmallVector<int, 1>, std::allocator<llvm::SmallVector<int, 1>>>::_Vector_impl" }
%"struct.std::_Vector_base<llvm::SmallVector<int, 1>, std::allocator<llvm::SmallVector<int, 1>>>::_Vector_impl" = type { %"struct.std::_Vector_base<llvm::SmallVector<int, 1>, std::allocator<llvm::SmallVector<int, 1>>>::_Vector_impl_data" }
%"struct.std::_Vector_base<llvm::SmallVector<int, 1>, std::allocator<llvm::SmallVector<int, 1>>>::_Vector_impl_data" = type { ptr, ptr, ptr }
%"class.std::vector.11" = type { %"struct.std::_Vector_base.12" }
%"struct.std::_Vector_base.12" = type { %"struct.std::_Vector_base<llvm::DomainValue *, std::allocator<llvm::DomainValue *>>::_Vector_impl" }
%"struct.std::_Vector_base<llvm::DomainValue *, std::allocator<llvm::DomainValue *>>::_Vector_impl" = type { %"struct.std::_Vector_base<llvm::DomainValue *, std::allocator<llvm::DomainValue *>>::_Vector_impl_data" }
%"struct.std::_Vector_base<llvm::DomainValue *, std::allocator<llvm::DomainValue *>>::_Vector_impl_data" = type { ptr, ptr, ptr }
%"class.llvm::SmallVector.16" = type { %"class.llvm::SmallVectorImpl.17", %"struct.llvm::SmallVectorStorage.20" }
%"class.llvm::SmallVectorImpl.17" = type { %"class.llvm::SmallVectorTemplateBase.18" }
%"class.llvm::SmallVectorTemplateBase.18" = type { %"class.llvm::SmallVectorTemplateCommon.19" }
%"class.llvm::SmallVectorTemplateCommon.19" = type { %"class.llvm::SmallVectorBase" }
%"struct.llvm::SmallVectorStorage.20" = type { [96 x i8] }
%"struct.llvm::DomainValue" = type { i32, i32, ptr, %"class.llvm::SmallVector.26" }
%"class.llvm::SmallVector.26" = type { %"class.llvm::SmallVectorImpl.27", %"struct.llvm::SmallVectorStorage.30" }
%"class.llvm::SmallVectorImpl.27" = type { %"class.llvm::SmallVectorTemplateBase.28" }
%"class.llvm::SmallVectorTemplateBase.28" = type { %"class.llvm::SmallVectorTemplateCommon.29" }
%"class.llvm::SmallVectorTemplateCommon.29" = type { %"class.llvm::SmallVectorBase" }
%"struct.llvm::SmallVectorStorage.30" = type { [64 x i8] }
%"class.__gnu_cxx::__normal_iterator.272" = type { ptr }

; Function Attrs: mustprogress nounwind uwtable
define linkonce_odr hidden noundef ptr @_ZN4llvm25SmallVectorTemplateCommonIPNS_12MachineInstrEvE5beginEv(ptr noundef nonnull align 8 dereferenceable(16) %0) #0 comdat align 2 {
  %2 = alloca ptr, align 8
  store ptr %0, ptr %2, align 8
  %3 = load ptr, ptr %2, align 8
  %4 = getelementptr inbounds nuw %"class.llvm::SmallVectorBase", ptr %3, i32 0, i32 0
  %5 = load ptr, ptr %4, align 8
  ret ptr %5
}

; Function Attrs: mustprogress nounwind uwtable
define linkonce_odr hidden noundef nonnull align 8 dereferenceable(8) ptr @_ZNK9__gnu_cxx17__normal_iteratorIPKPN4llvm11DomainValueESt6vectorIS3_SaIS3_EEE4baseEv(ptr noundef nonnull align 8 dereferenceable(8) %0) #0 comdat align 2 {
  %2 = alloca ptr, align 8
  store ptr %0, ptr %2, align 8
  %3 = load ptr, ptr %2, align 8
  %4 = getelementptr inbounds nuw %"class.__gnu_cxx::__normal_iterator.272", ptr %3, i32 0, i32 0
  ret ptr %4
}

; Function Attrs: mustprogress nounwind uwtable
define linkonce_odr hidden void @_ZN9__gnu_cxx17__normal_iteratorIPKPN4llvm11DomainValueESt6vectorIS3_SaIS3_EEEC2ERKS5_(ptr noundef nonnull align 8 dereferenceable(8) %0, ptr noundef nonnull align 8 dereferenceable(8) %1) unnamed_addr #0 comdat align 2 {
  %3 = alloca ptr, align 8
  %4 = alloca ptr, align 8
  store ptr %0, ptr %3, align 8
  store ptr %1, ptr %4, align 8
  %5 = load ptr, ptr %3, align 8
  %6 = getelementptr inbounds nuw %"class.__gnu_cxx::__normal_iterator.272", ptr %5, i32 0, i32 0
  %7 = load ptr, ptr %4, align 8
  %8 = load ptr, ptr %7, align 8
  store ptr %8, ptr %6, align 8
  ret void
}

; Function Attrs: mustprogress nounwind uwtable
define linkonce_odr hidden noundef ptr @_ZN4llvm25SmallVectorTemplateCommonIPNS_12MachineInstrEvE3endEv(ptr noundef nonnull align 8 dereferenceable(16) %0) #0 comdat align 2 {
  %2 = alloca ptr, align 8
  store ptr %0, ptr %2, align 8
  %3 = load ptr, ptr %2, align 8
  %4 = call noundef ptr @_ZN4llvm25SmallVectorTemplateCommonIPNS_12MachineInstrEvE5beginEv(ptr noundef nonnull align 8 dereferenceable(16) %3)
  %5 = call noundef i64 @_ZNK4llvm15SmallVectorBaseIjE4sizeEv(ptr noundef nonnull align 8 dereferenceable(16) %3)
  %6 = getelementptr inbounds ptr, ptr %4, i64 %5
  ret ptr %6
}

; Function Attrs: mustprogress nounwind uwtable
define linkonce_odr hidden noundef ptr @_ZN4llvm18ExecutionDomainFix6retainEPNS_11DomainValueE(ptr noundef nonnull align 8 dereferenceable(504) %0, ptr noundef %1) #0 comdat align 2 {
  %3 = alloca ptr, align 8
  %4 = alloca ptr, align 8
  store ptr %0, ptr %3, align 8
  store ptr %1, ptr %4, align 8
  %5 = load ptr, ptr %4, align 8
  %6 = icmp ne ptr %5, null
  br i1 %6, label %7, label %12

7:                                                ; preds = %2
  %8 = load ptr, ptr %4, align 8
  %9 = getelementptr inbounds nuw %"struct.llvm::DomainValue", ptr %8, i32 0, i32 0
  %10 = load i32, ptr %9, align 8
  %11 = add i32 %10, 1
  store i32 %11, ptr %9, align 8
  br label %12

12:                                               ; preds = %7, %2
  %13 = load ptr, ptr %4, align 8
  ret ptr %13
}

; Function Attrs: mustprogress nounwind uwtable
define linkonce_odr noundef zeroext i1 @_ZN9__gnu_cxxeqIPKPN4llvm11DomainValueESt6vectorIS3_SaIS3_EEEEbRKNS_17__normal_iteratorIT_T0_EESE_(ptr noundef nonnull align 8 dereferenceable(8) %0, ptr noundef nonnull align 8 dereferenceable(8) %1) #0 comdat {
  %3 = alloca ptr, align 8
  %4 = alloca ptr, align 8
  store ptr %0, ptr %3, align 8
  store ptr %1, ptr %4, align 8
  %5 = load ptr, ptr %3, align 8
  %6 = call noundef nonnull align 8 dereferenceable(8) ptr @_ZNK9__gnu_cxx17__normal_iteratorIPKPN4llvm11DomainValueESt6vectorIS3_SaIS3_EEE4baseEv(ptr noundef nonnull align 8 dereferenceable(8) %5) #10
  %7 = load ptr, ptr %6, align 8
  %8 = load ptr, ptr %4, align 8
  %9 = call noundef nonnull align 8 dereferenceable(8) ptr @_ZNK9__gnu_cxx17__normal_iteratorIPKPN4llvm11DomainValueESt6vectorIS3_SaIS3_EEE4baseEv(ptr noundef nonnull align 8 dereferenceable(8) %8) #10
  %10 = load ptr, ptr %9, align 8
  %11 = icmp eq ptr %7, %10
  ret i1 %11
}

; Function Attrs: mustprogress nounwind uwtable
define linkonce_odr hidden ptr @_ZNKSt6vectorIPN4llvm11DomainValueESaIS2_EE3endEv(ptr noundef nonnull align 8 dereferenceable(24) %0) #0 comdat align 2 {
  %2 = alloca %"class.__gnu_cxx::__normal_iterator.272", align 8
  %3 = alloca ptr, align 8
  store ptr %0, ptr %3, align 8
  %4 = load ptr, ptr %3, align 8
  %5 = getelementptr inbounds nuw %"struct.std::_Vector_base.12", ptr %4, i32 0, i32 0
  %6 = getelementptr inbounds nuw %"struct.std::_Vector_base<llvm::DomainValue *, std::allocator<llvm::DomainValue *>>::_Vector_impl_data", ptr %5, i32 0, i32 1
  call void @_ZN9__gnu_cxx17__normal_iteratorIPKPN4llvm11DomainValueESt6vectorIS3_SaIS3_EEEC2ERKS5_(ptr noundef nonnull align 8 dereferenceable(8) %2, ptr noundef nonnull align 8 dereferenceable(8) %6) #10
  %7 = getelementptr inbounds nuw %"class.__gnu_cxx::__normal_iterator.272", ptr %2, i32 0, i32 0
  %8 = load ptr, ptr %7, align 8
  ret ptr %8
}

; Function Attrs: mustprogress nounwind uwtable
define linkonce_odr hidden ptr @_ZNKSt6vectorIPN4llvm11DomainValueESaIS2_EE5beginEv(ptr noundef nonnull align 8 dereferenceable(24) %0) #0 comdat align 2 {
  %2 = alloca %"class.__gnu_cxx::__normal_iterator.272", align 8
  %3 = alloca ptr, align 8
  store ptr %0, ptr %3, align 8
  %4 = load ptr, ptr %3, align 8
  %5 = getelementptr inbounds nuw %"struct.std::_Vector_base.12", ptr %4, i32 0, i32 0
  %6 = getelementptr inbounds nuw %"struct.std::_Vector_base<llvm::DomainValue *, std::allocator<llvm::DomainValue *>>::_Vector_impl_data", ptr %5, i32 0, i32 0
  call void @_ZN9__gnu_cxx17__normal_iteratorIPKPN4llvm11DomainValueESt6vectorIS3_SaIS3_EEEC2ERKS5_(ptr noundef nonnull align 8 dereferenceable(8) %2, ptr noundef nonnull align 8 dereferenceable(8) %6) #10
  %7 = getelementptr inbounds nuw %"class.__gnu_cxx::__normal_iterator.272", ptr %2, i32 0, i32 0
  %8 = load ptr, ptr %7, align 8
  ret ptr %8
}

; Function Attrs: mustprogress nounwind uwtable
define linkonce_odr hidden void @_ZN4llvm23SmallVectorTemplateBaseIPNS_12MachineInstrELb1EE8pop_backEv(ptr noundef nonnull align 8 dereferenceable(16) %0) #0 comdat align 2 {
  %2 = alloca ptr, align 8
  store ptr %0, ptr %2, align 8
  %3 = load ptr, ptr %2, align 8
  %4 = call noundef i64 @_ZNK4llvm15SmallVectorBaseIjE4sizeEv(ptr noundef nonnull align 8 dereferenceable(16) %3)
  %5 = sub i64 %4, 1
  call void @_ZN4llvm15SmallVectorBaseIjE8set_sizeEm(ptr noundef nonnull align 8 dereferenceable(16) %3, i64 noundef %5)
  ret void
}

; Function Attrs: mustprogress nounwind uwtable
define linkonce_odr hidden noundef nonnull align 8 dereferenceable(8) ptr @_ZN4llvm25SmallVectorTemplateCommonIPNS_12MachineInstrEvE4backEv(ptr noundef nonnull align 8 dereferenceable(16) %0) #0 comdat align 2 {
  %2 = alloca ptr, align 8
  store ptr %0, ptr %2, align 8
  %3 = load ptr, ptr %2, align 8
  %4 = call noundef ptr @_ZN4llvm25SmallVectorTemplateCommonIPNS_12MachineInstrEvE3endEv(ptr noundef nonnull align 8 dereferenceable(16) %3)
  %5 = getelementptr inbounds ptr, ptr %4, i64 -1
  ret ptr %5
}

; Function Attrs: mustprogress nounwind uwtable
define dso_local void @_ZN4llvm18ExecutionDomainFix10setLiveRegEiPNS_11DomainValueE(ptr noundef nonnull align 8 dereferenceable(504) %0, i32 noundef %1, ptr noundef %2) #0 align 2 {
  %4 = alloca ptr, align 8
  %5 = alloca i32, align 4
  %6 = alloca ptr, align 8
  store ptr %0, ptr %4, align 8
  store i32 %1, ptr %5, align 4
  store ptr %2, ptr %6, align 8
  %7 = load ptr, ptr %4, align 8
  %8 = getelementptr inbounds nuw %"class.llvm::ExecutionDomainFix", ptr %7, i32 0, i32 9
  %9 = load i32, ptr %5, align 4
  %10 = sext i32 %9 to i64
  %11 = call noundef nonnull align 8 dereferenceable(8) ptr @_ZNSt6vectorIPN4llvm11DomainValueESaIS2_EEixEm(ptr noundef nonnull align 8 dereferenceable(24) %8, i64 noundef %10) #10
  %12 = load ptr, ptr %11, align 8
  %13 = load ptr, ptr %6, align 8
  %14 = icmp eq ptr %12, %13
  br i1 %14, label %15, label %16

15:                                               ; preds = %3
  br label %36

16:                                               ; preds = %3
  %17 = getelementptr inbounds nuw %"class.llvm::ExecutionDomainFix", ptr %7, i32 0, i32 9
  %18 = load i32, ptr %5, align 4
  %19 = sext i32 %18 to i64
  %20 = call noundef nonnull align 8 dereferenceable(8) ptr @_ZNSt6vectorIPN4llvm11DomainValueESaIS2_EEixEm(ptr noundef nonnull align 8 dereferenceable(24) %17, i64 noundef %19) #10
  %21 = load ptr, ptr %20, align 8
  %22 = icmp ne ptr %21, null
  br i1 %22, label %23, label %29

23:                                               ; preds = %16
  %24 = getelementptr inbounds nuw %"class.llvm::ExecutionDomainFix", ptr %7, i32 0, i32 9
  %25 = load i32, ptr %5, align 4
  %26 = sext i32 %25 to i64
  %27 = call noundef nonnull align 8 dereferenceable(8) ptr @_ZNSt6vectorIPN4llvm11DomainValueESaIS2_EEixEm(ptr noundef nonnull align 8 dereferenceable(24) %24, i64 noundef %26) #10
  %28 = load ptr, ptr %27, align 8
  call void @_ZN4llvm18ExecutionDomainFix7releaseEPNS_11DomainValueE(ptr noundef nonnull align 8 dereferenceable(504) %7, ptr noundef %28)
  br label %29

29:                                               ; preds = %23, %16
  %30 = load ptr, ptr %6, align 8
  %31 = call noundef ptr @_ZN4llvm18ExecutionDomainFix6retainEPNS_11DomainValueE(ptr noundef nonnull align 8 dereferenceable(504) %7, ptr noundef %30)
  %32 = getelementptr inbounds nuw %"class.llvm::ExecutionDomainFix", ptr %7, i32 0, i32 9
  %33 = load i32, ptr %5, align 4
  %34 = sext i32 %33 to i64
  %35 = call noundef nonnull align 8 dereferenceable(8) ptr @_ZNSt6vectorIPN4llvm11DomainValueESaIS2_EEixEm(ptr noundef nonnull align 8 dereferenceable(24) %32, i64 noundef %34) #10
  store ptr %31, ptr %35, align 8
  br label %36

36:                                               ; preds = %29, %15
  ret void
}

; Function Attrs: mustprogress nounwind uwtable
define linkonce_odr hidden noundef nonnull align 8 dereferenceable(8) ptr @_ZNSt6vectorIPN4llvm11DomainValueESaIS2_EEixEm(ptr noundef nonnull align 8 dereferenceable(24) %0, i64 noundef %1) #0 comdat align 2 {
  %3 = alloca ptr, align 8
  %4 = alloca i64, align 8
  store ptr %0, ptr %3, align 8
  store i64 %1, ptr %4, align 8
  %5 = load ptr, ptr %3, align 8
  %6 = getelementptr inbounds nuw %"struct.std::_Vector_base.12", ptr %5, i32 0, i32 0
  %7 = getelementptr inbounds nuw %"struct.std::_Vector_base<llvm::DomainValue *, std::allocator<llvm::DomainValue *>>::_Vector_impl_data", ptr %6, i32 0, i32 0
  %8 = load ptr, ptr %7, align 8
  %9 = load i64, ptr %4, align 8
  %10 = getelementptr inbounds ptr, ptr %8, i64 %9
  ret ptr %10
}

; Function Attrs: mustprogress nounwind uwtable
define linkonce_odr hidden noundef zeroext i1 @_ZNKSt6vectorIPN4llvm11DomainValueESaIS2_EE5emptyEv(ptr noundef nonnull align 8 dereferenceable(24) %0) #0 comdat align 2 {
  %2 = alloca ptr, align 8
  %3 = alloca %"class.__gnu_cxx::__normal_iterator.272", align 8
  %4 = alloca %"class.__gnu_cxx::__normal_iterator.272", align 8
  store ptr %0, ptr %2, align 8
  %5 = load ptr, ptr %2, align 8
  %6 = call ptr @_ZNKSt6vectorIPN4llvm11DomainValueESaIS2_EE5beginEv(ptr noundef nonnull align 8 dereferenceable(24) %5) #10
  %7 = getelementptr inbounds nuw %"class.__gnu_cxx::__normal_iterator.272", ptr %3, i32 0, i32 0
  store ptr %6, ptr %7, align 8
  %8 = call ptr @_ZNKSt6vectorIPN4llvm11DomainValueESaIS2_EE3endEv(ptr noundef nonnull align 8 dereferenceable(24) %5) #10
  %9 = getelementptr inbounds nuw %"class.__gnu_cxx::__normal_iterator.272", ptr %4, i32 0, i32 0
  store ptr %8, ptr %9, align 8
  %10 = call noundef zeroext i1 @_ZN9__gnu_cxxeqIPKPN4llvm11DomainValueESt6vectorIS3_SaIS3_EEEEbRKNS_17__normal_iteratorIT_T0_EESE_(ptr noundef nonnull align 8 dereferenceable(8) %3, ptr noundef nonnull align 8 dereferenceable(8) %4) #10
  ret i1 %10
}

; Function Attrs: mustprogress nounwind uwtable
define linkonce_odr hidden void @_ZN4llvm11DomainValue15setSingleDomainEj(ptr noundef nonnull align 8 dereferenceable(96) %0, i32 noundef %1) #0 comdat align 2 {
  %3 = alloca ptr, align 8
  %4 = alloca i32, align 4
  store ptr %0, ptr %3, align 8
  store i32 %1, ptr %4, align 4
  %5 = load ptr, ptr %3, align 8
  %6 = load i32, ptr %4, align 4
  %7 = shl i32 1, %6
  %8 = getelementptr inbounds nuw %"struct.llvm::DomainValue", ptr %5, i32 0, i32 1
  store i32 %7, ptr %8, align 4
  ret void
}

; Function Attrs: mustprogress nounwind uwtable
define linkonce_odr hidden noundef ptr @_ZN4llvm15SmallVectorImplIPNS_12MachineInstrEE12pop_back_valEv(ptr noundef nonnull align 8 dereferenceable(16) %0) #0 comdat align 2 {
  %2 = alloca ptr, align 8
  %3 = alloca ptr, align 8
  store ptr %0, ptr %2, align 8
  %4 = load ptr, ptr %2, align 8
  %5 = call noundef nonnull align 8 dereferenceable(8) ptr @_ZN4llvm25SmallVectorTemplateCommonIPNS_12MachineInstrEvE4backEv(ptr noundef nonnull align 8 dereferenceable(16) %4)
  %6 = load ptr, ptr %5, align 8
  store ptr %6, ptr %3, align 8
  call void @_ZN4llvm23SmallVectorTemplateBaseIPNS_12MachineInstrELb1EE8pop_backEv(ptr noundef nonnull align 8 dereferenceable(16) %4)
  %7 = load ptr, ptr %3, align 8
  ret ptr %7
}

; Function Attrs: mustprogress nounwind uwtable
define dso_local void @_ZN4llvm18ExecutionDomainFix8collapseEPNS_11DomainValueEj(ptr noundef nonnull align 8 dereferenceable(504) %0, ptr noundef %1, i32 noundef %2) #0 align 2 {
  %4 = alloca ptr, align 8
  %5 = alloca ptr, align 8
  %6 = alloca i32, align 4
  %7 = alloca i32, align 4
  store ptr %0, ptr %4, align 8
  store ptr %1, ptr %5, align 8
  store i32 %2, ptr %6, align 4
  %8 = load ptr, ptr %4, align 8
  br label %9

9:                                                ; preds = %14, %3
  %10 = load ptr, ptr %5, align 8
  %11 = getelementptr inbounds nuw %"struct.llvm::DomainValue", ptr %10, i32 0, i32 3
  %12 = call noundef zeroext i1 @_ZNK4llvm15SmallVectorBaseIjE5emptyEv(ptr noundef nonnull align 8 dereferenceable(16) %11)
  %13 = xor i1 %12, true
  br i1 %13, label %14, label %24

14:                                               ; preds = %9
  %15 = getelementptr inbounds nuw %"class.llvm::ExecutionDomainFix", ptr %8, i32 0, i32 5
  %16 = load ptr, ptr %15, align 8
  %17 = load ptr, ptr %5, align 8
  %18 = getelementptr inbounds nuw %"struct.llvm::DomainValue", ptr %17, i32 0, i32 3
  %19 = call noundef ptr @_ZN4llvm15SmallVectorImplIPNS_12MachineInstrEE12pop_back_valEv(ptr noundef nonnull align 8 dereferenceable(16) %18)
  %20 = load i32, ptr %6, align 4
  %21 = load ptr, ptr %16, align 8
  %22 = getelementptr inbounds ptr, ptr %21, i64 137
  %23 = load ptr, ptr %22, align 8
  call void %23(ptr noundef nonnull align 8 dereferenceable(80) %16, ptr noundef nonnull align 8 dereferenceable(70) %19, i32 noundef %20)
  br label %9, !llvm.loop !6

24:                                               ; preds = %9
  %25 = load ptr, ptr %5, align 8
  %26 = load i32, ptr %6, align 4
  call void @_ZN4llvm11DomainValue15setSingleDomainEj(ptr noundef nonnull align 8 dereferenceable(96) %25, i32 noundef %26)
  %27 = getelementptr inbounds nuw %"class.llvm::ExecutionDomainFix", ptr %8, i32 0, i32 9
  %28 = call noundef zeroext i1 @_ZNKSt6vectorIPN4llvm11DomainValueESaIS2_EE5emptyEv(ptr noundef nonnull align 8 dereferenceable(24) %27) #10
  br i1 %28, label %57, label %29

29:                                               ; preds = %24
  %30 = load ptr, ptr %5, align 8
  %31 = getelementptr inbounds nuw %"struct.llvm::DomainValue", ptr %30, i32 0, i32 0
  %32 = load i32, ptr %31, align 8
  %33 = icmp ugt i32 %32, 1
  br i1 %33, label %34, label %57

34:                                               ; preds = %29
  store i32 0, ptr %7, align 4
  br label %35

35:                                               ; preds = %53, %34
  %36 = load i32, ptr %7, align 4
  %37 = getelementptr inbounds nuw %"class.llvm::ExecutionDomainFix", ptr %8, i32 0, i32 8
  %38 = load i32, ptr %37, align 8
  %39 = icmp ne i32 %36, %38
  br i1 %39, label %40, label %56

40:                                               ; preds = %35
  %41 = getelementptr inbounds nuw %"class.llvm::ExecutionDomainFix", ptr %8, i32 0, i32 9
  %42 = load i32, ptr %7, align 4
  %43 = zext i32 %42 to i64
  %44 = call noundef nonnull align 8 dereferenceable(8) ptr @_ZNSt6vectorIPN4llvm11DomainValueESaIS2_EEixEm(ptr noundef nonnull align 8 dereferenceable(24) %41, i64 noundef %43) #10
  %45 = load ptr, ptr %44, align 8
  %46 = load ptr, ptr %5, align 8
  %47 = icmp eq ptr %45, %46
  br i1 %47, label %48, label %52

48:                                               ; preds = %40
  %49 = load i32, ptr %7, align 4
  %50 = load i32, ptr %6, align 4
  %51 = call noundef ptr @_ZN4llvm18ExecutionDomainFix5allocEi(ptr noundef nonnull align 8 dereferenceable(504) %8, i32 noundef %50)
  call void @_ZN4llvm18ExecutionDomainFix10setLiveRegEiPNS_11DomainValueE(ptr noundef nonnull align 8 dereferenceable(504) %8, i32 noundef %49, ptr noundef %51)
  br label %52

52:                                               ; preds = %48, %40
  br label %53

53:                                               ; preds = %52
  %54 = load i32, ptr %7, align 4
  %55 = add i32 %54, 1
  store i32 %55, ptr %7, align 4
  br label %35, !llvm.loop !7

56:                                               ; preds = %35
  br label %57

57:                                               ; preds = %56, %29, %24
  ret void
}