; Function Attrs: mustprogress nounwind uwtable
define dso_local void @_ZN4llvm18ExecutionDomainFix8collapseEPNS_11DomainValueEj(ptr noundef nonnull align 8 dereferenceable(504) %0, ptr noundef %1, i32 noundef %2) local_unnamed_addr #0 align 2 {
  %4 = getelementptr inbounds nuw i8, ptr %1, i64 16
  %5 = tail call noundef zeroext i1 @_ZNK4llvm15SmallVectorBaseIjE5emptyEv(ptr noundef nonnull align 8 dereferenceable(16) %4) #13
  br i1 %5, label %._crit_edge, label %.lr.ph

.lr.ph:                                           ; preds = %3
  %6 = getelementptr inbounds nuw i8, ptr %0, i64 312
  br label %7

7:                                                ; preds = %.lr.ph, %7
  %8 = load ptr, ptr %6, align 8
  %9 = load ptr, ptr %4, align 8
  %10 = tail call noundef i64 @_ZNK4llvm15SmallVectorBaseIjE4sizeEv(ptr noundef nonnull align 8 dereferenceable(16) %4) #13
  %11 = getelementptr inbounds ptr, ptr %9, i64 %10
  %12 = getelementptr inbounds i8, ptr %11, i64 -8
  %13 = load ptr, ptr %12, align 8
  %14 = tail call noundef i64 @_ZNK4llvm15SmallVectorBaseIjE4sizeEv(ptr noundef nonnull align 8 dereferenceable(16) %4) #13
  %15 = add i64 %14, -1
  tail call void @_ZN4llvm15SmallVectorBaseIjE8set_sizeEm(ptr noundef nonnull align 8 dereferenceable(16) %4, i64 noundef %15) #13
  %16 = load ptr, ptr %8, align 8
  %17 = getelementptr inbounds nuw i8, ptr %16, i64 1096
  %18 = load ptr, ptr %17, align 8
  tail call void %18(ptr noundef nonnull align 8 dereferenceable(80) %8, ptr noundef nonnull align 8 dereferenceable(70) %13, i32 noundef %2) #13
  %19 = tail call noundef zeroext i1 @_ZNK4llvm15SmallVectorBaseIjE5emptyEv(ptr noundef nonnull align 8 dereferenceable(16) %4) #13
  br i1 %19, label %._crit_edge, label %7, !llvm.loop !6

._crit_edge:                                      ; preds = %7, %3
  %20 = shl nuw i32 1, %2
  %21 = getelementptr inbounds nuw i8, ptr %1, i64 4
  store i32 %20, ptr %21, align 4
  %22 = getelementptr inbounds nuw i8, ptr %0, i64 360
  %23 = load ptr, ptr %22, align 8
  %24 = getelementptr inbounds nuw i8, ptr %0, i64 368
  %25 = load ptr, ptr %24, align 8
  %26 = icmp eq ptr %23, %25
  br i1 %26, label %.loopexit, label %27

27:                                               ; preds = %._crit_edge
  %28 = load i32, ptr %1, align 8
  %29 = icmp ugt i32 %28, 1
  br i1 %29, label %.preheader, label %.loopexit

.preheader:                                       ; preds = %27
  %30 = getelementptr inbounds nuw i8, ptr %0, i64 352
  %31 = load i32, ptr %30, align 8
  %.not13 = icmp eq i32 %31, 0
  br i1 %.not13, label %.loopexit, label %.lr.ph15

.lr.ph15:                                         ; preds = %.preheader, %_ZN4llvm18ExecutionDomainFix10setLiveRegEiPNS_11DomainValueE.exit
  %.014 = phi i32 [ %52, %_ZN4llvm18ExecutionDomainFix10setLiveRegEiPNS_11DomainValueE.exit ], [ 0, %.preheader ]
  %32 = zext i32 %.014 to i64
  %33 = load ptr, ptr %22, align 8
  %34 = getelementptr inbounds nuw ptr, ptr %33, i64 %32
  %35 = load ptr, ptr %34, align 8
  %36 = icmp eq ptr %35, %1
  br i1 %36, label %37, label %_ZN4llvm18ExecutionDomainFix10setLiveRegEiPNS_11DomainValueE.exit

37:                                               ; preds = %.lr.ph15
  %38 = tail call noundef ptr @_ZN4llvm18ExecutionDomainFix5allocEi(ptr noundef nonnull align 8 dereferenceable(504) %0, i32 noundef %2)
  %39 = sext i32 %.014 to i64
  %40 = load ptr, ptr %22, align 8
  %41 = getelementptr inbounds ptr, ptr %40, i64 %39
  %42 = load ptr, ptr %41, align 8
  %43 = icmp eq ptr %42, %38
  br i1 %43, label %_ZN4llvm18ExecutionDomainFix10setLiveRegEiPNS_11DomainValueE.exit, label %44

44:                                               ; preds = %37
  %.not.i = icmp eq ptr %42, null
  br i1 %.not.i, label %46, label %45

45:                                               ; preds = %44
  tail call void @_ZN4llvm18ExecutionDomainFix7releaseEPNS_11DomainValueE(ptr noundef nonnull align 8 dereferenceable(504) %0, ptr noundef nonnull %42)
  br label %46

46:                                               ; preds = %45, %44
  %.not.i12 = icmp eq ptr %38, null
  br i1 %.not.i12, label %_ZN4llvm18ExecutionDomainFix6retainEPNS_11DomainValueE.exit, label %47

47:                                               ; preds = %46
  %48 = load i32, ptr %38, align 8
  %49 = add i32 %48, 1
  store i32 %49, ptr %38, align 8
  br label %_ZN4llvm18ExecutionDomainFix6retainEPNS_11DomainValueE.exit

_ZN4llvm18ExecutionDomainFix6retainEPNS_11DomainValueE.exit: ; preds = %46, %47
  %50 = load ptr, ptr %22, align 8
  %51 = getelementptr inbounds ptr, ptr %50, i64 %39
  store ptr %38, ptr %51, align 8
  br label %_ZN4llvm18ExecutionDomainFix10setLiveRegEiPNS_11DomainValueE.exit

_ZN4llvm18ExecutionDomainFix10setLiveRegEiPNS_11DomainValueE.exit: ; preds = %_ZN4llvm18ExecutionDomainFix6retainEPNS_11DomainValueE.exit, %37, %.lr.ph15
  %52 = add i32 %.014, 1
  %53 = load i32, ptr %30, align 8
  %.not = icmp eq i32 %52, %53
  br i1 %.not, label %.loopexit, label %.lr.ph15, !llvm.loop !7

.loopexit:                                        ; preds = %_ZN4llvm18ExecutionDomainFix10setLiveRegEiPNS_11DomainValueE.exit, %.preheader, %27, %._crit_edge
  ret void
}